target datalayout = "e-m:e-p270:32:32-p271:32:32-p272:64:64-i64:64-i128:128-f80:128-n8:16:32:64-S128"
target triple = "x86_64-unknown-linux-gnu"

%"class.icu_75::UnicodeString" = type { %"class.icu_75::Replaceable", %"union.icu_75::UnicodeString::StackBufferOrFields" }
%"class.icu_75::Replaceable" = type { %"class.icu_75::UObject" }
%"class.icu_75::UObject" = type { ptr }
%"union.icu_75::UnicodeString::StackBufferOrFields" = type { %struct.anon.0, [32 x i8] }
%struct.anon.0 = type { i16, i32, i32, ptr }
%"class.icu_75::UnicodeSet" = type <{ %"class.icu_75::UnicodeFilter", ptr, i32, i32, i8, [7 x i8], ptr, ptr, i32, [4 x i8], ptr, i32, [4 x i8], ptr, ptr, [25 x i32], [4 x i8] }>
%"class.icu_75::UnicodeFilter" = type { %"class.icu_75::UnicodeFunctor", %"class.icu_75::UnicodeMatcher" }
%"class.icu_75::UnicodeFunctor" = type { %"class.icu_75::UObject" }
%"class.icu_75::UnicodeMatcher" = type { ptr }
%"class.icu_75::RuleCharacterIterator" = type <{ ptr, ptr, ptr, ptr, i32, [4 x i8] }>
%struct.anon = type { i16, [27 x i16] }

@_ZTVN6icu_757UObjectE = external unnamed_addr constant { [5 x ptr] }, align 8
@_ZTVN6icu_7513UnicodeStringE = external unnamed_addr constant { [13 x ptr] }, align 8
@_ZTVN6icu_7511ReplaceableE = external unnamed_addr constant { [13 x ptr] }, align 8

; Function Attrs: mustprogress nounwind uwtable
define linkonce_odr void @_ZN6icu_757UObjectC2Ev(ptr noundef nonnull align 8 dereferenceable(8) %this) unnamed_addr #0 comdat align 2 {
entry:
  %this.addr = alloca ptr, align 8
  store ptr %this, ptr %this.addr, align 8
  %this1 = load ptr, ptr %this.addr, align 8
  store ptr getelementptr inbounds ({ [5 x ptr] }, ptr @_ZTVN6icu_757UObjectE, i32 0, i32 0, i32 2), ptr %this1, align 8
  ret void
}

; Function Attrs: mustprogress nounwind uwtable
define linkonce_odr void @_ZN6icu_7511ReplaceableC2Ev(ptr noundef nonnull align 8 dereferenceable(8) %this) unnamed_addr #0 comdat align 2 {
entry:
  %this.addr = alloca ptr, align 8
  store ptr %this, ptr %this.addr, align 8
  %this1 = load ptr, ptr %this.addr, align 8
  call void @_ZN6icu_757UObjectC2Ev(ptr noundef nonnull align 8 dereferenceable(8) %this1) #10
  store ptr getelementptr inbounds ({ [13 x ptr] }, ptr @_ZTVN6icu_7511ReplaceableE, i32 0, i32 0, i32 2), ptr %this1, align 8
  ret void
}

; Function Attrs: mustprogress nounwind uwtable
define linkonce_odr noundef signext i8 @_ZNK6icu_7521RuleCharacterIterator10inVariableEv(ptr noundef nonnull align 8 dereferenceable(36) %this) #0 comdat align 2 {
entry:
  %this.addr = alloca ptr, align 8
  store ptr %this, ptr %this.addr, align 8
  %this1 = load ptr, ptr %this.addr, align 8
  %buf = getelementptr inbounds %"class.icu_75::RuleCharacterIterator", ptr %this1, i32 0, i32 3
  %0 = load ptr, ptr %buf, align 8
  %cmp = icmp ne ptr %0, null
  %conv = zext i1 %cmp to i8
  ret i8 %conv
}

; Function Attrs: mustprogress uwtable
define linkonce_odr void @_ZN6icu_7513UnicodeStringC2Ev(ptr noundef nonnull align 8 dereferenceable(64) %this) unnamed_addr #1 comdat align 2 {
entry:
  %this.addr = alloca ptr, align 8
  store ptr %this, ptr %this.addr, align 8
  %this1 = load ptr, ptr %this.addr, align 8
  call void @_ZN6icu_7511ReplaceableC2Ev(ptr noundef nonnull align 8 dereferenceable(8) %this1)
  store ptr getelementptr inbounds ({ [13 x ptr] }, ptr @_ZTVN6icu_7513UnicodeStringE, i32 0, i32 0, i32 2), ptr %this1, align 8
  %fUnion2 = getelementptr inbounds %"class.icu_75::UnicodeString", ptr %this1, i32 0, i32 1
  %fLengthAndFlags = getelementptr inbounds %struct.anon, ptr %fUnion2, i32 0, i32 0
  store i16 2, ptr %fLengthAndFlags, align 8
  ret void
}

; Function Attrs: mustprogress nounwind uwtable
define linkonce_odr noundef signext i8 @_ZNK6icu_7510UnicodeSet8isFrozenEv(ptr noundef nonnull align 8 dereferenceable(200) %this) #0 comdat align 2 {
entry:
  %this.addr = alloca ptr, align 8
  store ptr %this, ptr %this.addr, align 8
  %this1 = load ptr, ptr %this.addr, align 8
  %bmpSet = getelementptr inbounds %"class.icu_75::UnicodeSet", ptr %this1, i32 0, i32 6
  %0 = load ptr, ptr %bmpSet, align 8
  %cmp = icmp ne ptr %0, null
  br i1 %cmp, label %lor.end, label %lor.rhs

lor.rhs:                                          ; preds = %entry
  %stringSpan = getelementptr inbounds %"class.icu_75::UnicodeSet", ptr %this1, i32 0, i32 14
  %1 = load ptr, ptr %stringSpan, align 8
  %cmp2 = icmp ne ptr %1, null
  br label %lor.end

lor.end:                                          ; preds = %lor.rhs, %entry
  %2 = phi i1 [ true, %entry ], [ %cmp2, %lor.rhs ]
  %conv = zext i1 %2 to i8
  ret i8 %conv
}

; Function Attrs: mustprogress nounwind uwtable
define internal noundef signext i8 @_ZL9U_FAILURE10UErrorCode(i32 noundef %code) #0 {
entry:
  %code.addr = alloca i32, align 4
  store i32 %code, ptr %code.addr, align 4
  %0 = load i32, ptr %code.addr, align 4
  %cmp = icmp sgt i32 %0, 0
  %conv = zext i1 %cmp to i8
  ret i8 %conv
}

; Function Attrs: mustprogress uwtable
define void @_ZN6icu_7510UnicodeSet23applyPatternIgnoreSpaceERKNS_13UnicodeStringERNS_13ParsePositionEPKNS_11SymbolTableER10UErrorCode(ptr noundef nonnull align 8 dereferenceable(200) %this, ptr noundef nonnull align 8 dereferenceable(64) %pattern, ptr noundef nonnull align 8 dereferenceable(16) %pos, ptr noundef %symbols, ptr noundef nonnull align 4 dereferenceable(4) %status) #1 align 2 personality ptr @__gxx_personality_v0 {
entry:
  %this.addr = alloca ptr, align 8
  %pattern.addr = alloca ptr, align 8
  %pos.addr = alloca ptr, align 8
  %symbols.addr = alloca ptr, align 8
  %status.addr = alloca ptr, align 8
  %rebuiltPat = alloca %"class.icu_75::UnicodeString", align 8
  %chars = alloca %"class.icu_75::RuleCharacterIterator", align 8
  %exn.slot = alloca ptr, align 8
  %ehselector.slot = alloca i32, align 4
  %indirect-arg-temp = alloca { i64, i64 }, align 8
  %cleanup.dest.slot = alloca i32, align 4
  store ptr %this, ptr %this.addr, align 8
  store ptr %pattern, ptr %pattern.addr, align 8
  store ptr %pos, ptr %pos.addr, align 8
  store ptr %symbols, ptr %symbols.addr, align 8
  store ptr %status, ptr %status.addr, align 8
  %this1 = load ptr, ptr %this.addr, align 8
  %0 = load ptr, ptr %status.addr, align 8
  %1 = load i32, ptr %0, align 4
  %call = call noundef signext i8 @_ZL9U_FAILURE10UErrorCode(i32 noundef %1)
  %tobool = icmp ne i8 %call, 0
  br i1 %tobool, label %if.then, label %if.end

if.then:                                          ; preds = %entry
  br label %cleanup.cont

if.end:                                           ; preds = %entry
  %call2 = call noundef signext i8 @_ZNK6icu_7510UnicodeSet8isFrozenEv(ptr noundef nonnull align 8 dereferenceable(200) %this1)
  %tobool3 = icmp ne i8 %call2, 0
  br i1 %tobool3, label %if.then4, label %if.end5

if.then4:                                         ; preds = %if.end
  %2 = load ptr, ptr %status.addr, align 8
  store i32 30, ptr %2, align 4
  br label %cleanup.cont

if.end5:                                          ; preds = %if.end
  call void @_ZN6icu_7513UnicodeStringC2Ev(ptr noundef nonnull align 8 dereferenceable(64) %rebuiltPat)
  %3 = load ptr, ptr %pattern.addr, align 8
  %4 = load ptr, ptr %symbols.addr, align 8
  %5 = load ptr, ptr %pos.addr, align 8
  invoke void @_ZN6icu_7521RuleCharacterIteratorC1ERKNS_13UnicodeStringEPKNS_11SymbolTableERNS_13ParsePositionE(ptr noundef nonnull align 8 dereferenceable(36) %chars, ptr noundef nonnull align 8 dereferenceable(64) %3, ptr noundef %4, ptr noundef nonnull align 8 dereferenceable(16) %5)
          to label %invoke.cont unwind label %lpad

invoke.cont:                                      ; preds = %if.end5
  %6 = load ptr, ptr %symbols.addr, align 8
  %7 = load ptr, ptr %status.addr, align 8
  store { i64, i64 } zeroinitializer, ptr %indirect-arg-temp, align 8
  invoke void @_ZN6icu_7510UnicodeSet12applyPatternERNS_21RuleCharacterIteratorEPKNS_11SymbolTableERNS_13UnicodeStringEjMS0_FRS0_iEiR10UErrorCode(ptr noundef nonnull align 8 dereferenceable(200) %this1, ptr noundef nonnull align 8 dereferenceable(36) %chars, ptr noundef %6, ptr noundef nonnull align 8 dereferenceable(64) %rebuiltPat, i32 noundef 1, ptr noundef byval({ i64, i64 }) align 8 %indirect-arg-temp, i32 noundef 0, ptr noundef nonnull align 4 dereferenceable(4) %7)
          to label %invoke.cont6 unwind label %lpad

invoke.cont6:                                     ; preds = %invoke.cont
  %8 = load ptr, ptr %status.addr, align 8
  %9 = load i32, ptr %8, align 4
  %call8 = invoke noundef signext i8 @_ZL9U_FAILURE10UErrorCode(i32 noundef %9)
          to label %invoke.cont7 unwind label %lpad

invoke.cont7:                                     ; preds = %invoke.cont6
  %tobool9 = icmp ne i8 %call8, 0
  br i1 %tobool9, label %if.then10, label %if.end11

if.then10:                                        ; preds = %invoke.cont7
  store i32 1, ptr %cleanup.dest.slot, align 4
  br label %cleanup

lpad:                                             ; preds = %if.end16, %if.end11, %invoke.cont6, %invoke.cont, %if.end5
  %10 = landingpad { ptr, i32 }
          cleanup
  %11 = extractvalue { ptr, i32 } %10, 0
  store ptr %11, ptr %exn.slot, align 8
  %12 = extractvalue { ptr, i32 } %10, 1
  store i32 %12, ptr %ehselector.slot, align 4
  call void @_ZN6icu_7513UnicodeStringD1Ev(ptr noundef nonnull align 8 dereferenceable(64) %rebuiltPat) #10
  br label %eh.resume

if.end11:                                         ; preds = %invoke.cont7
  %call13 = invoke noundef signext i8 @_ZNK6icu_7521RuleCharacterIterator10inVariableEv(ptr noundef nonnull align 8 dereferenceable(36) %chars)
          to label %invoke.cont12 unwind label %lpad

invoke.cont12:                                    ; preds = %if.end11
  %tobool14 = icmp ne i8 %call13, 0
  br i1 %tobool14, label %if.then15, label %if.end16

if.then15:                                        ; preds = %invoke.cont12
  %13 = load ptr, ptr %status.addr, align 8
  store i32 65538, ptr %13, align 4
  store i32 1, ptr %cleanup.dest.slot, align 4
  br label %cleanup

if.end16:                                         ; preds = %invoke.cont12
  invoke void @_ZN6icu_7510UnicodeSet10setPatternERKNS_13UnicodeStringE(ptr noundef nonnull align 8 dereferenceable(200) %this1, ptr noundef nonnull align 8 dereferenceable(64) %rebuiltPat)
          to label %invoke.cont17 unwind label %lpad

invoke.cont17:                                    ; preds = %if.end16
  store i32 0, ptr %cleanup.dest.slot, align 4
  br label %cleanup

cleanup:                                          ; preds = %invoke.cont17, %if.then15, %if.then10
  call void @_ZN6icu_7513UnicodeStringD1Ev(ptr noundef nonnull align 8 dereferenceable(64) %rebuiltPat) #10
  %cleanup.dest = load i32, ptr %cleanup.dest.slot, align 4
  switch i32 %cleanup.dest, label %unreachable [
    i32 0, label %cleanup.cont
    i32 1, label %cleanup.cont
  ]

cleanup.cont:                                     ; preds = %cleanup, %cleanup, %if.then4, %if.then
  ret void

eh.resume:                                        ; preds = %lpad
  %exn = load ptr, ptr %exn.slot, align 8
  %sel = load i32, ptr %ehselector.slot, align 4
  %lpad.val = insertvalue { ptr, i32 } poison, ptr %exn, 0
  %lpad.val18 = insertvalue { ptr, i32 } %lpad.val, i32 %sel, 1
  resume { ptr, i32 } %lpad.val18

unreachable:                                      ; preds = %cleanup
  unreachable
}