; Function Attrs: mustprogress uwtable
define void @_ZN6icu_7510UnicodeSet23applyPatternIgnoreSpaceERKNS_13UnicodeStringERNS_13ParsePositionEPKNS_11SymbolTableER10UErrorCode(ptr noundef nonnull align 8 dereferenceable(200) %this, ptr noundef nonnull align 8 dereferenceable(64) %pattern, ptr noundef nonnull align 8 dereferenceable(16) %pos, ptr noundef %symbols, ptr noundef nonnull align 4 dereferenceable(4) %status) local_unnamed_addr #1 align 2 personality ptr @__gxx_personality_v0 {
entry:
  %rebuiltPat = alloca %"class.icu_75::UnicodeString", align 8
  %chars = alloca %"class.icu_75::RuleCharacterIterator", align 8
  %indirect-arg-temp = alloca { i64, i64 }, align 8
  %0 = load i32, ptr %status, align 4
  %cmp.i = icmp slt i32 %0, 1
  br i1 %cmp.i, label %if.end, label %cleanup.cont

if.end:                                           ; preds = %entry
  %bmpSet.i = getelementptr inbounds i8, ptr %this, i64 40
  %1 = load ptr, ptr %bmpSet.i, align 8
  %cmp.not.i = icmp eq ptr %1, null
  %stringSpan.i = getelementptr inbounds i8, ptr %this, i64 88
  %2 = load ptr, ptr %stringSpan.i, align 8
  %cmp2.i = icmp eq ptr %2, null
  %narrow.i.not = select i1 %cmp.not.i, i1 %cmp2.i, i1 false
  br i1 %narrow.i.not, label %if.end5, label %if.then4

if.then4:                                         ; preds = %if.end
  store i32 30, ptr %status, align 4
  br label %cleanup.cont

if.end5:                                          ; preds = %if.end
  store ptr getelementptr inbounds ({ [13 x ptr] }, ptr @_ZTVN6icu_7513UnicodeStringE, i64 0, i32 0, i64 2), ptr %rebuiltPat, align 8
  %fUnion2.i = getelementptr inbounds i8, ptr %rebuiltPat, i64 8
  store i16 2, ptr %fUnion2.i, align 8
  invoke void @_ZN6icu_7521RuleCharacterIteratorC1ERKNS_13UnicodeStringEPKNS_11SymbolTableERNS_13ParsePositionE(ptr noundef nonnull align 8 dereferenceable(36) %chars, ptr noundef nonnull align 8 dereferenceable(64) %pattern, ptr noundef %symbols, ptr noundef nonnull align 8 dereferenceable(16) %pos)
          to label %invoke.cont unwind label %lpad

invoke.cont:                                      ; preds = %if.end5
  call void @llvm.memset.p0.i64(ptr noundef nonnull align 8 dereferenceable(16) %indirect-arg-temp, i8 0, i64 16, i1 false)
  invoke void @_ZN6icu_7510UnicodeSet12applyPatternERNS_21RuleCharacterIteratorEPKNS_11SymbolTableERNS_13UnicodeStringEjMS0_FRS0_iEiR10UErrorCode(ptr noundef nonnull align 8 dereferenceable(200) %this, ptr noundef nonnull align 8 dereferenceable(36) %chars, ptr noundef %symbols, ptr noundef nonnull align 8 dereferenceable(64) %rebuiltPat, i32 noundef 1, ptr noundef nonnull byval({ i64, i64 }) align 8 %indirect-arg-temp, i32 noundef 0, ptr noundef nonnull align 4 dereferenceable(4) %status)
          to label %invoke.cont6 unwind label %lpad

invoke.cont6:                                     ; preds = %invoke.cont
  %3 = load i32, ptr %status, align 4
  %cmp.i7 = icmp slt i32 %3, 1
  br i1 %cmp.i7, label %if.end11, label %cleanup

lpad:                                             ; preds = %if.end16, %invoke.cont, %if.end5
  %4 = landingpad { ptr, i32 }
          cleanup
  call void @_ZN6icu_7513UnicodeStringD1Ev(ptr noundef nonnull align 8 dereferenceable(64) %rebuiltPat) #15
  resume { ptr, i32 } %4

if.end11:                                         ; preds = %invoke.cont6
  %buf.i = getelementptr inbounds i8, ptr %chars, i64 24
  %5 = load ptr, ptr %buf.i, align 8
  %cmp.i9.not = icmp eq ptr %5, null
  br i1 %cmp.i9.not, label %if.end16, label %if.then15

if.then15:                                        ; preds = %if.end11
  store i32 65538, ptr %status, align 4
  br label %cleanup

if.end16:                                         ; preds = %if.end11
  invoke void @_ZN6icu_7510UnicodeSet10setPatternERKNS_13UnicodeStringE(ptr noundef nonnull align 8 dereferenceable(200) %this, ptr noundef nonnull align 8 dereferenceable(64) %rebuiltPat)
          to label %cleanup unwind label %lpad

cleanup:                                          ; preds = %if.end16, %invoke.cont6, %if.then15
  call void @_ZN6icu_7513UnicodeStringD1Ev(ptr noundef nonnull align 8 dereferenceable(64) %rebuiltPat) #15
  br label %cleanup.cont

cleanup.cont:                                     ; preds = %entry, %cleanup, %if.then4
  ret void
}